; Function Attrs: mustprogress uwtable
define void @_ZN6gmxapi7Session5closeEv(ptr dead_on_unwind noalias nonnull writable sret(%"class.gmxapi::Status") align 8 %0, ptr noundef nonnull readonly align 8 captures(none) dereferenceable(8) %1) local_unnamed_addr #0 align 2 personality ptr @__gxx_personality_v0 {
  %3 = alloca %"class.gmxapi::Status", align 8
  tail call void @_ZN6gmxapi6StatusC1Eb(ptr noundef nonnull align 8 dereferenceable(8) %0, i1 noundef zeroext false)
  %4 = load ptr, ptr %1, align 8, !tbaa !61
  %5 = getelementptr inbounds nuw i8, ptr %4, i64 64
  %6 = load ptr, ptr %5, align 8, !tbaa !54
  %.not = icmp eq ptr %6, null
  br i1 %.not, label %12, label %7

7:                                                ; preds = %2
  call void @llvm.lifetime.start.p0(i64 8, ptr nonnull %3) #26
  invoke void @_ZN6gmxapi11SessionImpl5closeEv(ptr dead_on_unwind nonnull writable sret(%"class.gmxapi::Status") align 8 %3, ptr noundef nonnull align 8 dereferenceable(160) %4)
          to label %8 unwind label %10

8:                                                ; preds = %7
  %9 = call noundef nonnull align 8 dereferenceable(8) ptr @_ZN6gmxapi6StatusaSEOS0_(ptr noundef nonnull align 8 dereferenceable(8) %0, ptr noundef nonnull align 8 dereferenceable(8) %3) #26
  call void @_ZN6gmxapi6StatusD1Ev(ptr noundef nonnull align 8 dereferenceable(8) %3) #26
  call void @llvm.lifetime.end.p0(i64 8, ptr nonnull %3) #26
  br label %12

10:                                               ; preds = %7
  %11 = landingpad { ptr, i32 }
          cleanup
  call void @llvm.lifetime.end.p0(i64 8, ptr nonnull %3) #26
  call void @_ZN6gmxapi6StatusD1Ev(ptr noundef nonnull align 8 dereferenceable(8) %0) #26
  resume { ptr, i32 } %11

12:                                               ; preds = %2, %8
  ret void
}